target datalayout = "e-m:e-p270:32:32-p271:32:32-p272:64:64-i64:64-i128:128-f80:128-n8:16:32:64-S128"
target triple = "x86_64-unknown-linux-gnu"

%struct.AioContext = type { %struct._GSource, %struct.QemuRecMutex, ptr, %struct.AioHandlerList, %struct.AioHandlerList, i32, %struct.QemuLockCnt, %struct.BHList, %struct.anon.1, i8, %struct.EventNotifier, %struct.anon.2, ptr, i32, i32, ptr, ptr, %struct.io_uring, %struct.AioHandlerSList, %struct.QEMUTimerListGroup, i32, i64, i64, i64, i64, i64, %struct.AioHandlerList, i8, i32, ptr }
%struct._GSource = type { ptr, ptr, ptr, i32, ptr, i32, i32, i32, ptr, ptr, ptr, ptr, ptr }
%struct.QemuRecMutex = type { %struct.QemuMutex }
%struct.QemuMutex = type { %union.pthread_mutex_t, i8 }
%union.pthread_mutex_t = type { %struct.__pthread_mutex_s }
%struct.__pthread_mutex_s = type { i32, i32, i32, i32, i32, i16, i16, %struct.__pthread_internal_list }
%struct.__pthread_internal_list = type { ptr, ptr }
%struct.QemuLockCnt = type { i32 }
%struct.BHList = type { ptr }
%struct.anon.1 = type { ptr, ptr }
%struct.EventNotifier = type { i32, i32, i8 }
%struct.anon.2 = type { ptr }
%struct.io_uring = type { %struct.io_uring_sq, %struct.io_uring_cq, i32, i32, i32, [3 x i32] }
%struct.io_uring_sq = type { ptr, ptr, ptr, ptr, ptr, ptr, ptr, ptr, i32, i32, i64, ptr, [4 x i32] }
%struct.io_uring_cq = type { ptr, ptr, ptr, ptr, ptr, ptr, ptr, i64, ptr, [4 x i32] }
%struct.AioHandlerSList = type { ptr }
%struct.QEMUTimerListGroup = type { [4 x ptr] }
%struct.AioHandlerList = type { ptr }
%struct.anon.7 = type { ptr }
%struct.Coroutine = type { ptr, ptr, ptr, %struct.anon.3, i64, ptr, ptr, %struct.anon.4, %struct.anon.5, %struct.anon.6 }
%struct.anon.3 = type { ptr }
%struct.anon.4 = type { ptr }
%struct.anon.5 = type { ptr, ptr }
%struct.anon.6 = type { ptr }
%struct.timeval = type { i64, i64 }

@.str = private unnamed_addr constant [21 x i8] c"../qemu/util/async.c\00", align 1
@.str.3 = private unnamed_addr constant [18 x i8] c"co_schedule_bh_cb\00", align 1
@__func__.aio_context_acquire = private unnamed_addr constant [20 x i8] c"aio_context_acquire\00", align 1
@qemu_rec_mutex_lock_func = external global ptr, align 8
@trace_events_enabled_count = external global i32, align 4
@message_with_timestamp = external global i8, align 1
@qemu_loglevel = external global i32, align 4
@_TRACE_AIO_CO_SCHEDULE_BH_CB_DSTATE = external global i16, align 2
@.str.15 = private unnamed_addr constant [49 x i8] c"%d@%zu.%06zu:aio_co_schedule_bh_cb ctx %p co %p\0A\00", align 1
@.str.16 = private unnamed_addr constant [36 x i8] c"aio_co_schedule_bh_cb ctx %p co %p\0A\00", align 1

; Function Attrs: nounwind sspstrong uwtable
define internal zeroext i1 @qemu_loglevel_mask(i32 noundef %mask) #0 {
entry:
  %mask.addr = alloca i32, align 4
  store i32 %mask, ptr %mask.addr, align 4
  %0 = load i32, ptr @qemu_loglevel, align 4
  %1 = load i32, ptr %mask.addr, align 4
  %and = and i32 %0, %1
  %cmp = icmp ne i32 %and, 0
  ret i1 %cmp
}

; Function Attrs: nounwind sspstrong uwtable
define internal void @_nocheck__trace_aio_co_schedule_bh_cb(ptr noundef %ctx, ptr noundef %co) #0 {
entry:
  %ctx.addr = alloca ptr, align 8
  %co.addr = alloca ptr, align 8
  %_now = alloca %struct.timeval, align 8
  store ptr %ctx, ptr %ctx.addr, align 8
  store ptr %co, ptr %co.addr, align 8
  %0 = load i32, ptr @trace_events_enabled_count, align 4
  %tobool = icmp ne i32 %0, 0
  %lnot = xor i1 %tobool, true
  %lnot1 = xor i1 %lnot, true
  %lnot.ext = zext i1 %lnot1 to i32
  %conv = sext i32 %lnot.ext to i64
  %tobool2 = icmp ne i64 %conv, 0
  br i1 %tobool2, label %land.lhs.true, label %if.end11

land.lhs.true:                                    ; preds = %entry
  %1 = load i16, ptr @_TRACE_AIO_CO_SCHEDULE_BH_CB_DSTATE, align 2
  %conv3 = zext i16 %1 to i32
  %tobool4 = icmp ne i32 %conv3, 0
  br i1 %tobool4, label %land.lhs.true5, label %if.end11

land.lhs.true5:                                   ; preds = %land.lhs.true
  %call = call zeroext i1 @qemu_loglevel_mask(i32 noundef 32768)
  br i1 %call, label %if.then, label %if.end11

if.then:                                          ; preds = %land.lhs.true5
  %2 = load i8, ptr @message_with_timestamp, align 1
  %tobool7 = trunc i8 %2 to i1
  br i1 %tobool7, label %if.then8, label %if.else

if.then8:                                         ; preds = %if.then
  %call9 = call i32 @gettimeofday(ptr noundef %_now, ptr noundef null) #11
  %call10 = call i32 @qemu_get_thread_id()
  %tv_sec = getelementptr inbounds %struct.timeval, ptr %_now, i32 0, i32 0
  %3 = load i64, ptr %tv_sec, align 8
  %tv_usec = getelementptr inbounds %struct.timeval, ptr %_now, i32 0, i32 1
  %4 = load i64, ptr %tv_usec, align 8
  %5 = load ptr, ptr %ctx.addr, align 8
  %6 = load ptr, ptr %co.addr, align 8
  call void (ptr, ...) @qemu_log(ptr noundef @.str.15, i32 noundef %call10, i64 noundef %3, i64 noundef %4, ptr noundef %5, ptr noundef %6)
  br label %if.end

if.else:                                          ; preds = %if.then
  %7 = load ptr, ptr %ctx.addr, align 8
  %8 = load ptr, ptr %co.addr, align 8
  call void (ptr, ...) @qemu_log(ptr noundef @.str.16, ptr noundef %7, ptr noundef %8)
  br label %if.end

if.end:                                           ; preds = %if.else, %if.then8
  br label %if.end11

if.end11:                                         ; preds = %if.end, %land.lhs.true5, %land.lhs.true, %entry
  ret void
}

; Function Attrs: nounwind sspstrong uwtable
define dso_local void @aio_context_release(ptr noundef %ctx) #0 {
entry:
  %ctx.addr = alloca ptr, align 8
  store ptr %ctx, ptr %ctx.addr, align 8
  %0 = load ptr, ptr %ctx.addr, align 8
  %lock = getelementptr inbounds %struct.AioContext, ptr %0, i32 0, i32 1
  call void @qemu_rec_mutex_unlock_impl(ptr noundef %lock, ptr noundef @.str, i32 noundef 733)
  ret void
}

; Function Attrs: nounwind sspstrong uwtable
define dso_local void @aio_context_acquire(ptr noundef %ctx) #0 {
entry:
  %ctx.addr = alloca ptr, align 8
  %_f = alloca ptr, align 8
  %tmp = alloca ptr, align 8
  %atomic-temp = alloca ptr, align 8
  store ptr %ctx, ptr %ctx.addr, align 8
  br label %while.cond

while.cond:                                       ; preds = %do.end, %entry
  br i1 false, label %while.body, label %while.end

while.body:                                       ; preds = %while.cond
  br label %do.body

do.body:                                          ; preds = %while.body
  call void @g_assertion_message_expr(ptr noundef null, ptr noundef @.str, i32 noundef 728, ptr noundef @__func__.aio_context_acquire, ptr noundef null) #10
  unreachable

do.end:                                           ; No predecessors!
  br label %while.cond

while.end:                                        ; preds = %while.cond
  %0 = load atomic i64, ptr @qemu_rec_mutex_lock_func monotonic, align 8
  store i64 %0, ptr %atomic-temp, align 8
  %1 = load ptr, ptr %atomic-temp, align 8
  store ptr %1, ptr %tmp, align 8
  %2 = load ptr, ptr %tmp, align 8
  store ptr %2, ptr %_f, align 8
  %3 = load ptr, ptr %_f, align 8
  %4 = load ptr, ptr %ctx.addr, align 8
  %lock = getelementptr inbounds %struct.AioContext, ptr %4, i32 0, i32 1
  call void %3(ptr noundef %lock, ptr noundef @.str, i32 noundef 728)
  ret void
}

; Function Attrs: nounwind sspstrong uwtable
define internal void @trace_aio_co_schedule_bh_cb(ptr noundef %ctx, ptr noundef %co) #0 {
entry:
  %ctx.addr = alloca ptr, align 8
  %co.addr = alloca ptr, align 8
  store ptr %ctx, ptr %ctx.addr, align 8
  store ptr %co, ptr %co.addr, align 8
  %0 = load ptr, ptr %ctx.addr, align 8
  %1 = load ptr, ptr %co.addr, align 8
  call void @_nocheck__trace_aio_co_schedule_bh_cb(ptr noundef %0, ptr noundef %1)
  ret void
}

; Function Attrs: nounwind sspstrong uwtable
define internal void @co_schedule_bh_cb(ptr noundef %opaque) #0 {
entry:
  %opaque.addr = alloca ptr, align 8
  %ctx = alloca ptr, align 8
  %straight = alloca %struct.anon.7, align 8
  %reversed = alloca %struct.anon.7, align 8
  %tmp = alloca ptr, align 8
  %tmp2 = alloca ptr, align 8
  %.atomictmp = alloca ptr, align 8
  %atomic-temp = alloca ptr, align 8
  %co = alloca ptr, align 8
  %elm = alloca ptr, align 8
  %co30 = alloca ptr, align 8
  %elm33 = alloca ptr, align 8
  %.atomictmp47 = alloca ptr, align 8
  store ptr %opaque, ptr %opaque.addr, align 8
  %0 = load ptr, ptr %opaque.addr, align 8
  store ptr %0, ptr %ctx, align 8
  br label %do.body

do.body:                                          ; preds = %entry
  br label %while.cond

while.cond:                                       ; preds = %do.end, %do.body
  br i1 false, label %while.body, label %while.end

while.body:                                       ; preds = %while.cond
  br label %do.body1

do.body1:                                         ; preds = %while.body
  call void @g_assertion_message_expr(ptr noundef null, ptr noundef @.str, i32 noundef 552, ptr noundef @.str.3, ptr noundef null) #10
  unreachable

do.end:                                           ; No predecessors!
  br label %while.cond

while.end:                                        ; preds = %while.cond
  %1 = load ptr, ptr %ctx, align 8
  %scheduled_coroutines = getelementptr inbounds %struct.AioContext, ptr %1, i32 0, i32 11
  %slh_first = getelementptr inbounds %struct.anon.2, ptr %scheduled_coroutines, i32 0, i32 0
  store ptr null, ptr %.atomictmp, align 8
  %2 = load i64, ptr %.atomictmp, align 8
  %3 = atomicrmw xchg ptr %slh_first, i64 %2 seq_cst, align 8
  store i64 %3, ptr %atomic-temp, align 8
  %4 = load ptr, ptr %atomic-temp, align 8
  store ptr %4, ptr %tmp2, align 8
  %5 = load ptr, ptr %tmp2, align 8
  store ptr %5, ptr %tmp, align 8
  %6 = load ptr, ptr %tmp, align 8
  %slh_first3 = getelementptr inbounds %struct.anon.7, ptr %reversed, i32 0, i32 0
  store ptr %6, ptr %slh_first3, align 8
  br label %do.end4

do.end4:                                          ; preds = %while.end
  br label %do.body5

do.body5:                                         ; preds = %do.end4
  %slh_first6 = getelementptr inbounds %struct.anon.7, ptr %straight, i32 0, i32 0
  store ptr null, ptr %slh_first6, align 8
  br label %do.end7

do.end7:                                          ; preds = %do.body5
  br label %while.cond8

while.cond8:                                      ; preds = %do.end23, %do.end7
  %slh_first9 = getelementptr inbounds %struct.anon.7, ptr %reversed, i32 0, i32 0
  %7 = load ptr, ptr %slh_first9, align 8
  %cmp = icmp eq ptr %7, null
  %lnot = xor i1 %cmp, true
  br i1 %lnot, label %while.body10, label %while.end24

while.body10:                                     ; preds = %while.cond8
  %slh_first11 = getelementptr inbounds %struct.anon.7, ptr %reversed, i32 0, i32 0
  %8 = load ptr, ptr %slh_first11, align 8
  store ptr %8, ptr %co, align 8
  br label %do.body12

do.body12:                                        ; preds = %while.body10
  %slh_first13 = getelementptr inbounds %struct.anon.7, ptr %reversed, i32 0, i32 0
  %9 = load ptr, ptr %slh_first13, align 8
  store ptr %9, ptr %elm, align 8
  %10 = load ptr, ptr %elm, align 8
  %co_scheduled_next = getelementptr inbounds %struct.Coroutine, ptr %10, i32 0, i32 9
  %sle_next = getelementptr inbounds %struct.anon.6, ptr %co_scheduled_next, i32 0, i32 0
  %11 = load ptr, ptr %sle_next, align 8
  %slh_first14 = getelementptr inbounds %struct.anon.7, ptr %reversed, i32 0, i32 0
  store ptr %11, ptr %slh_first14, align 8
  %12 = load ptr, ptr %elm, align 8
  %co_scheduled_next15 = getelementptr inbounds %struct.Coroutine, ptr %12, i32 0, i32 9
  %sle_next16 = getelementptr inbounds %struct.anon.6, ptr %co_scheduled_next15, i32 0, i32 0
  store ptr null, ptr %sle_next16, align 8
  br label %do.end17

do.end17:                                         ; preds = %do.body12
  br label %do.body18

do.body18:                                        ; preds = %do.end17
  %slh_first19 = getelementptr inbounds %struct.anon.7, ptr %straight, i32 0, i32 0
  %13 = load ptr, ptr %slh_first19, align 8
  %14 = load ptr, ptr %co, align 8
  %co_scheduled_next20 = getelementptr inbounds %struct.Coroutine, ptr %14, i32 0, i32 9
  %sle_next21 = getelementptr inbounds %struct.anon.6, ptr %co_scheduled_next20, i32 0, i32 0
  store ptr %13, ptr %sle_next21, align 8
  %15 = load ptr, ptr %co, align 8
  %slh_first22 = getelementptr inbounds %struct.anon.7, ptr %straight, i32 0, i32 0
  store ptr %15, ptr %slh_first22, align 8
  br label %do.end23

do.end23:                                         ; preds = %do.body18
  br label %while.cond8, !llvm.loop !16

while.end24:                                      ; preds = %while.cond8
  br label %while.cond25

while.cond25:                                     ; preds = %do.end48, %while.end24
  %slh_first26 = getelementptr inbounds %struct.anon.7, ptr %straight, i32 0, i32 0
  %16 = load ptr, ptr %slh_first26, align 8
  %cmp27 = icmp eq ptr %16, null
  %lnot28 = xor i1 %cmp27, true
  br i1 %lnot28, label %while.body29, label %while.end49

while.body29:                                     ; preds = %while.cond25
  %slh_first31 = getelementptr inbounds %struct.anon.7, ptr %straight, i32 0, i32 0
  %17 = load ptr, ptr %slh_first31, align 8
  store ptr %17, ptr %co30, align 8
  br label %do.body32

do.body32:                                        ; preds = %while.body29
  %slh_first34 = getelementptr inbounds %struct.anon.7, ptr %straight, i32 0, i32 0
  %18 = load ptr, ptr %slh_first34, align 8
  store ptr %18, ptr %elm33, align 8
  %19 = load ptr, ptr %elm33, align 8
  %co_scheduled_next35 = getelementptr inbounds %struct.Coroutine, ptr %19, i32 0, i32 9
  %sle_next36 = getelementptr inbounds %struct.anon.6, ptr %co_scheduled_next35, i32 0, i32 0
  %20 = load ptr, ptr %sle_next36, align 8
  %slh_first37 = getelementptr inbounds %struct.anon.7, ptr %straight, i32 0, i32 0
  store ptr %20, ptr %slh_first37, align 8
  %21 = load ptr, ptr %elm33, align 8
  %co_scheduled_next38 = getelementptr inbounds %struct.Coroutine, ptr %21, i32 0, i32 9
  %sle_next39 = getelementptr inbounds %struct.anon.6, ptr %co_scheduled_next38, i32 0, i32 0
  store ptr null, ptr %sle_next39, align 8
  br label %do.end40

do.end40:                                         ; preds = %do.body32
  %22 = load ptr, ptr %ctx, align 8
  %23 = load ptr, ptr %co30, align 8
  call void @trace_aio_co_schedule_bh_cb(ptr noundef %22, ptr noundef %23)
  %24 = load ptr, ptr %ctx, align 8
  call void @aio_context_acquire(ptr noundef %24)
  br label %do.body41

do.body41:                                        ; preds = %do.end40
  br label %while.cond42

while.cond42:                                     ; preds = %do.end45, %do.body41
  br i1 false, label %while.body43, label %while.end46

while.body43:                                     ; preds = %while.cond42
  br label %do.body44

do.body44:                                        ; preds = %while.body43
  call void @g_assertion_message_expr(ptr noundef null, ptr noundef @.str, i32 noundef 568, ptr noundef @.str.3, ptr noundef null) #10
  unreachable

do.end45:                                         ; No predecessors!
  br label %while.cond42

while.end46:                                      ; preds = %while.cond42
  %25 = load ptr, ptr %co30, align 8
  %scheduled = getelementptr inbounds %struct.Coroutine, ptr %25, i32 0, i32 6
  store ptr null, ptr %.atomictmp47, align 8
  %26 = load i64, ptr %.atomictmp47, align 8
  store atomic i64 %26, ptr %scheduled monotonic, align 8
  br label %do.end48

do.end48:                                         ; preds = %while.end46
  %27 = load ptr, ptr %ctx, align 8
  %28 = load ptr, ptr %co30, align 8
  call void @qemu_aio_coroutine_enter(ptr noundef %27, ptr noundef %28)
  %29 = load ptr, ptr %ctx, align 8
  call void @aio_context_release(ptr noundef %29)
  br label %while.cond25, !llvm.loop !17

while.end49:                                      ; preds = %while.cond25
  ret void
}