; Function Attrs: nounwind sspstrong uwtable
define internal void @co_schedule_bh_cb(ptr noundef %opaque) #0 {
entry:
  %_now.i.i = alloca %struct.timeval, align 8
  %scheduled_coroutines = getelementptr inbounds nuw i8, ptr %opaque, i64 216
  %0 = atomicrmw xchg ptr %scheduled_coroutines, i64 0 seq_cst, align 8
  %cmp.not16 = icmp eq i64 %0, 0
  br i1 %cmp.not16, label %while.end49, label %while.body10.preheader

while.body10.preheader:                           ; preds = %entry
  %1 = inttoptr i64 %0 to ptr
  br label %while.body10

while.body29.lr.ph:                               ; preds = %while.body10
  %tv_usec.i.i = getelementptr inbounds nuw i8, ptr %_now.i.i, i64 8
  %lock.i = getelementptr inbounds nuw i8, ptr %opaque, i64 96
  br label %while.body29

while.body10:                                     ; preds = %while.body10.preheader, %while.body10
  %straight.sroa.0.018 = phi ptr [ %reversed.sroa.0.017, %while.body10 ], [ null, %while.body10.preheader ]
  %reversed.sroa.0.017 = phi ptr [ %2, %while.body10 ], [ %1, %while.body10.preheader ]
  %co_scheduled_next = getelementptr inbounds nuw i8, ptr %reversed.sroa.0.017, i64 80
  %2 = load ptr, ptr %co_scheduled_next, align 8
  store ptr %straight.sroa.0.018, ptr %co_scheduled_next, align 8
  %cmp.not = icmp eq ptr %2, null
  br i1 %cmp.not, label %while.body29.lr.ph, label %while.body10, !llvm.loop !16

while.body29:                                     ; preds = %while.body29.lr.ph, %trace_aio_co_schedule_bh_cb.exit
  %straight.sroa.0.120 = phi ptr [ %reversed.sroa.0.017, %while.body29.lr.ph ], [ %3, %trace_aio_co_schedule_bh_cb.exit ]
  %co_scheduled_next35 = getelementptr inbounds nuw i8, ptr %straight.sroa.0.120, i64 80
  %3 = load ptr, ptr %co_scheduled_next35, align 8
  store ptr null, ptr %co_scheduled_next35, align 8
  call void @llvm.lifetime.start.p0(i64 16, ptr nonnull %_now.i.i)
  %4 = load i32, ptr @trace_events_enabled_count, align 4
  %tobool.i.i = icmp ne i32 %4, 0
  %5 = load i16, ptr @_TRACE_AIO_CO_SCHEDULE_BH_CB_DSTATE, align 2
  %tobool4.i.i = icmp ne i16 %5, 0
  %or.cond.i.i = select i1 %tobool.i.i, i1 %tobool4.i.i, i1 false
  br i1 %or.cond.i.i, label %land.lhs.true5.i.i, label %trace_aio_co_schedule_bh_cb.exit

land.lhs.true5.i.i:                               ; preds = %while.body29
  %6 = load i32, ptr @qemu_loglevel, align 4
  %and.i.i.i = and i32 %6, 32768
  %cmp.i.not.i.i = icmp eq i32 %and.i.i.i, 0
  br i1 %cmp.i.not.i.i, label %trace_aio_co_schedule_bh_cb.exit, label %if.then.i.i

if.then.i.i:                                      ; preds = %land.lhs.true5.i.i
  %7 = load i8, ptr @message_with_timestamp, align 1
  %tobool7.i.i = trunc i8 %7 to i1
  br i1 %tobool7.i.i, label %if.then8.i.i, label %if.else.i.i

if.then8.i.i:                                     ; preds = %if.then.i.i
  %call9.i.i = call i32 @gettimeofday(ptr noundef nonnull %_now.i.i, ptr noundef null) #13
  %call10.i.i = tail call i32 @qemu_get_thread_id() #13
  %8 = load i64, ptr %_now.i.i, align 8
  %9 = load i64, ptr %tv_usec.i.i, align 8
  tail call void (ptr, ...) @qemu_log(ptr noundef nonnull @.str.15, i32 noundef %call10.i.i, i64 noundef %8, i64 noundef %9, ptr noundef %opaque, ptr noundef nonnull %straight.sroa.0.120) #13
  br label %trace_aio_co_schedule_bh_cb.exit

if.else.i.i:                                      ; preds = %if.then.i.i
  tail call void (ptr, ...) @qemu_log(ptr noundef nonnull @.str.16, ptr noundef %opaque, ptr noundef nonnull %straight.sroa.0.120) #13
  br label %trace_aio_co_schedule_bh_cb.exit

trace_aio_co_schedule_bh_cb.exit:                 ; preds = %while.body29, %land.lhs.true5.i.i, %if.then8.i.i, %if.else.i.i
  call void @llvm.lifetime.end.p0(i64 16, ptr nonnull %_now.i.i)
  %10 = load atomic i64, ptr @qemu_rec_mutex_lock_func monotonic, align 8
  %11 = inttoptr i64 %10 to ptr
  tail call void %11(ptr noundef nonnull %lock.i, ptr noundef nonnull @.str, i32 noundef 728) #13
  %scheduled = getelementptr inbounds nuw i8, ptr %straight.sroa.0.120, i64 48
  store atomic i64 0, ptr %scheduled monotonic, align 8
  tail call void @qemu_aio_coroutine_enter(ptr noundef %opaque, ptr noundef nonnull %straight.sroa.0.120) #13
  tail call void @qemu_rec_mutex_unlock_impl(ptr noundef nonnull %lock.i, ptr noundef nonnull @.str, i32 noundef 733) #13
  %cmp27.not = icmp eq ptr %3, null
  br i1 %cmp27.not, label %while.end49, label %while.body29, !llvm.loop !17

while.end49:                                      ; preds = %trace_aio_co_schedule_bh_cb.exit, %entry
  ret void
}